; Function Attrs: mustprogress uwtable
define internal void @"_ZN4LuauL8fnVisitVIZNS_16toStringDetailedEPKNS_4TypeERNS_15ToStringOptionsEE3$_0KNS_9NeverTypeEEEvRT_PNSt11conditionalIXsr3stdE10is_const_vIT0_EEKvvE4typeE"(ptr noundef nonnull readonly align 8 captures(none) dereferenceable(16) %0, ptr readnone captures(none) %1) #6 personality ptr @__gxx_personality_v0 {
  %.val = load ptr, ptr %0, align 8, !tbaa !646
  %.val.val = load ptr, ptr %.val, align 8, !tbaa !28
  %.val.val.val = load ptr, ptr %.val.val, align 8, !tbaa !39
  %3 = getelementptr i8, ptr %.val.val, i64 8
  %.val.val.val3 = load ptr, ptr %3, align 8, !tbaa !86
  %4 = getelementptr i8, ptr %.val.val.val, i64 16
  %.val.val.val.val = load i64, ptr %4, align 8, !tbaa !64
  %.not.i.i.i = icmp ne i64 %.val.val.val.val, 0
  %.phi.trans.insert2.i.i.i = getelementptr inbounds nuw i8, ptr %.val.val.val3, i64 8
  %.pre3.i.i.i = load i64, ptr %.phi.trans.insert2.i.i.i, align 8, !tbaa !23
  %5 = icmp ugt i64 %.pre3.i.i.i, %.val.val.val.val
  %or.cond.i.i.i = select i1 %.not.i.i.i, i1 %5, i1 false
  br i1 %or.cond.i.i.i, label %"_ZZN4Luau16toStringDetailedEPKNS_4TypeERNS_15ToStringOptionsEENK3$_0clIRKNS_9NeverTypeEEEDaOT_.exit", label %._crit_edge.i.i.i

._crit_edge.i.i.i:                                ; preds = %2
  %6 = add i64 %.pre3.i.i.i, -4611686018427387899
  %7 = icmp ult i64 %6, 5
  br i1 %7, label %8, label %_ZNSt7__cxx1112basic_stringIcSt11char_traitsIcESaIcEEpLEPKc.exit.i.i.i

8:                                                ; preds = %._crit_edge.i.i.i
  tail call void @_ZSt20__throw_length_errorPKc(ptr noundef nonnull @.str.183) #31
  unreachable

_ZNSt7__cxx1112basic_stringIcSt11char_traitsIcESaIcEEpLEPKc.exit.i.i.i: ; preds = %._crit_edge.i.i.i
  %9 = tail call noundef nonnull align 8 dereferenceable(32) ptr @_ZNSt7__cxx1112basic_stringIcSt11char_traitsIcESaIcEE9_M_appendEPKcm(ptr noundef nonnull align 8 dereferenceable(32) %.val.val.val3, ptr noundef nonnull @.str.153, i64 noundef 5)
  br label %"_ZZN4Luau16toStringDetailedEPKNS_4TypeERNS_15ToStringOptionsEENK3$_0clIRKNS_9NeverTypeEEEDaOT_.exit"

"_ZZN4Luau16toStringDetailedEPKNS_4TypeERNS_15ToStringOptionsEENK3$_0clIRKNS_9NeverTypeEEEDaOT_.exit": ; preds = %2, %_ZNSt7__cxx1112basic_stringIcSt11char_traitsIcESaIcEEpLEPKc.exit.i.i.i
  ret void
}